target datalayout = "e-m:e-p270:32:32-p271:32:32-p272:64:64-i64:64-i128:128-f80:128-n8:16:32:64-S128"
target triple = "x86_64-pc-linux-gnu"

%struct.ossl_init_settings_st = type { ptr, ptr, i64 }

; Function Attrs: nounwind uwtable
define i32 @OPENSSL_INIT_set_config_filename(ptr noundef %0, ptr noundef %1) #0 {
  %3 = alloca i32, align 4
  %4 = alloca ptr, align 8
  %5 = alloca ptr, align 8
  %6 = alloca ptr, align 8
  %7 = alloca i32, align 4
  store ptr %0, ptr %4, align 8, !tbaa !51
  store ptr %1, ptr %5, align 8, !tbaa !19
  call void @llvm.lifetime.start.p0(i64 8, ptr %6) #8
  store ptr null, ptr %6, align 8, !tbaa !19
  %8 = load ptr, ptr %5, align 8, !tbaa !19
  %9 = icmp ne ptr %8, null
  br i1 %9, label %10, label %17

10:                                               ; preds = %2
  %11 = load ptr, ptr %5, align 8, !tbaa !19
  %12 = call noalias ptr @strdup(ptr noundef %11) #8
  store ptr %12, ptr %6, align 8, !tbaa !19
  %13 = load ptr, ptr %6, align 8, !tbaa !19
  %14 = icmp eq ptr %13, null
  br i1 %14, label %15, label %16

15:                                               ; preds = %10
  store i32 0, ptr %3, align 4
  store i32 1, ptr %7, align 4
  br label %24

16:                                               ; preds = %10
  br label %17

17:                                               ; preds = %16, %2
  %18 = load ptr, ptr %4, align 8, !tbaa !51
  %19 = getelementptr inbounds nuw %struct.ossl_init_settings_st, ptr %18, i32 0, i32 0
  %20 = load ptr, ptr %19, align 8, !tbaa !55
  call void @free(ptr noundef %20) #8
  %21 = load ptr, ptr %6, align 8, !tbaa !19
  %22 = load ptr, ptr %4, align 8, !tbaa !51
  %23 = getelementptr inbounds nuw %struct.ossl_init_settings_st, ptr %22, i32 0, i32 0
  store ptr %21, ptr %23, align 8, !tbaa !55
  store i32 1, ptr %3, align 4
  store i32 1, ptr %7, align 4
  br label %24

24:                                               ; preds = %17, %15
  call void @llvm.lifetime.end.p0(i64 8, ptr %6) #8
  %25 = load i32, ptr %3, align 4
  ret i32 %25
}